	.file	"testalign.cpp"
	.text
.Ltext0:
	.p2align 4,,15
	.globl	_Z4distPKdS0_m
	.type	_Z4distPKdS0_m, @function
_Z4distPKdS0_m:
.LFB3055:
	.file 1 "testalign.cpp"
	.loc 1 7 0
	.cfi_startproc
.LVL0:
	pushq	%rbp
.LCFI0:
	.cfi_def_cfa_offset 16
	.cfi_offset 6, -16
.LBB33:
.LBB34:
	.loc 1 8 0
	vxorpd	%xmm0, %xmm0, %xmm0
.LBE34:
.LBE33:
	.loc 1 7 0
	movq	%rsp, %rbp
.LCFI1:
	.cfi_def_cfa_register 6
	pushq	%r12
	pushq	%rbx
	andq	$-32, %rsp
	addq	$32, %rsp
.LBB39:
.LBB35:
	.loc 1 9 0
	testq	%rdx, %rdx
.LBE35:
.LBE39:
	.loc 1 7 0
	.cfi_offset 12, -24
	.cfi_offset 3, -32
.LBB40:
.LBB36:
	.loc 1 9 0
	je	.L2
	.loc 1 7 0
	movq	%rdi, %r9
	andl	$31, %r9d
	shrq	$3, %r9
	negq	%r9
	andl	$3, %r9d
	cmpq	%rdx, %r9
	cmova	%rdx, %r9
	cmpq	$5, %rdx
	ja	.L23
.LBE36:
.LBE40:
	movq	%rdx, %r9
.L3:
	vxorpd	%xmm0, %xmm0, %xmm0
	xorl	%eax, %eax
.LVL1:
	.p2align 4,,10
	.p2align 3
.L5:
.LBB41:
.LBB37:
	.loc 1 10 0
	vmovsd	(%rdi,%rax,8), %xmm1
	vsubsd	(%rsi,%rax,8), %xmm1, %xmm1
	.loc 1 9 0
	addq	$1, %rax
	cmpq	%r9, %rax
	.loc 1 10 0
	vaddsd	%xmm1, %xmm0, %xmm0
.LVL2:
	jb	.L5
	cmpq	%r9, %rdx
	je	.L2
.LVL3:
.L4:
	movq	%rdx, %r12
	subq	%r9, %r12
	movq	%r12, %r10
	shrq	$2, %r10
	leaq	0(,%r10,4), %rbx
	testq	%rbx, %rbx
	je	.L16
.LBE37:
.LBE41:
	.loc 1 8 0
	vxorpd	%xmm1, %xmm1, %xmm1
	salq	$3, %r9
	leaq	(%rdi,%r9), %r11
	xorl	%ecx, %ecx
	addq	%rsi, %r9
	xorl	%r8d, %r8d
	.p2align 4,,10
	.p2align 3
.L8:
.LBB42:
.LBB38:
	.loc 1 10 0 discriminator 2
	vmovupd	(%r9,%rcx), %xmm2
	addq	$1, %r8
	vinsertf128	$0x1, 16(%r9,%rcx), %ymm2, %ymm2
	vmovapd	(%r11,%rcx), %ymm3
	addq	$32, %rcx
	cmpq	%r10, %r8
	vsubpd	%ymm2, %ymm3, %ymm2
	vaddpd	%ymm2, %ymm1, %ymm1
	jb	.L8
	vhaddpd	%ymm1, %ymm1, %ymm1
	addq	%rbx, %rax
	cmpq	%rbx, %r12
	vperm2f128	$1, %ymm1, %ymm1, %ymm2
	vaddpd	%ymm2, %ymm1, %ymm1
	vaddsd	%xmm1, %xmm0, %xmm0
	je	.L2
	.p2align 4,,10
	.p2align 3
.L16:
	.loc 1 10 0 is_stmt 0
	vmovsd	(%rdi,%rax,8), %xmm1
	vsubsd	(%rsi,%rax,8), %xmm1, %xmm1
	.loc 1 9 0 is_stmt 1
	addq	$1, %rax
	cmpq	%rax, %rdx
	.loc 1 10 0
	vaddsd	%xmm1, %xmm0, %xmm0
.LVL4:
	.loc 1 9 0
	ja	.L16
.LVL5:
.L2:
.LBE38:
.LBE42:
	.loc 1 12 0
	leaq	-16(%rbp), %rsp
	popq	%rbx
	popq	%r12
	popq	%rbp
.LCFI2:
	.cfi_remember_state
	.cfi_def_cfa 7, 8
	vzeroupper
	ret
.LVL6:
.L23:
.LCFI3:
	.cfi_restore_state
	testq	%r9, %r9
	jne	.L3
	.loc 1 9 0
	xorl	%eax, %eax
	.loc 1 8 0
	vxorpd	%xmm0, %xmm0, %xmm0
	jmp	.L4
	.cfi_endproc
.LFE3055:
	.size	_Z4distPKdS0_m, .-_Z4distPKdS0_m
	.section	.rodata.str1.1,"aMS",@progbits,1
.LC1:
	.string	"Ignore1: "
.LC2:
	.string	"Ignore2: "
	.section	.text.startup,"ax",@progbits
	.p2align 4,,15
	.globl	main
	.type	main, @function
main:
.LFB3056:
	.loc 1 15 0
	.cfi_startproc
.LVL7:
	pushq	%rbp
.LCFI4:
	.cfi_def_cfa_offset 16
	.cfi_offset 6, -16
.LBB43:
	.loc 1 17 0
	movl	$133124, %edi
.LBE43:
	.loc 1 15 0
	movq	%rsp, %rbp
.LCFI5:
	.cfi_def_cfa_register 6
	pushq	%r12
	pushq	%rbx
	andq	$-32, %rsp
	subq	$64, %rsp
	.cfi_offset 12, -24
	.cfi_offset 3, -32
.LBB66:
	.loc 1 17 0
	call	_Znam
.LVL8:
	.loc 1 18 0
	movl	$133124, %edi
	.loc 1 17 0
	movq	%rax, %rbx
.LVL9:
	.loc 1 18 0
	call	_Znam
.LVL10:
	movq	%rax, %r12
.LVL11:
	.loc 1 15 0
	movq	%rbx, %rax
.LVL12:
	andl	$31, %eax
	shrq	$3, %rax
	negq	%rax
	andl	$3, %eax
	je	.L37
.LBE66:
	vxorpd	%xmm4, %xmm4, %xmm4
	xorl	%ecx, %ecx
	movl	$127, %esi
	vmovapd	%xmm4, %xmm0
.LVL13:
	.p2align 4,,10
	.p2align 3
.L26:
.LBB67:
.LBB44:
.LBB45:
.LBB46:
	.loc 1 10 0
	vmovsd	(%rbx,%rcx,8), %xmm1
	.loc 1 9 0
	leaq	1(%rcx), %rdx
	movq	%rsi, %rdi
	.loc 1 10 0
	vsubsd	(%r12,%rcx,8), %xmm1, %xmm1
	subq	%rcx, %rdi
	cmpq	%rdx, %rax
	.loc 1 9 0
	movq	%rdx, %rcx
	.loc 1 10 0
	vaddsd	%xmm1, %xmm0, %xmm0
.LVL14:
	ja	.L26
.LVL15:
.L25:
	movl	$128, %r11d
	subq	%rax, %r11
	movq	%r11, %r8
	shrq	$2, %r8
	leaq	0(,%r8,4), %r10
	testq	%r10, %r10
	je	.L27
.LBE46:
.LBE45:
.LBE44:
.LBE67:
	.loc 1 9 0
	vxorpd	%xmm1, %xmm1, %xmm1
	salq	$3, %rax
	leaq	(%rbx,%rax), %r9
	leaq	(%r12,%rax), %rsi
	xorl	%ecx, %ecx
	xorl	%eax, %eax
	.p2align 4,,10
	.p2align 3
.L28:
.LBB68:
.LBB49:
.LBB48:
.LBB47:
	.loc 1 10 0
	vmovupd	(%rsi,%rcx), %xmm2
	addq	$1, %rax
	vinsertf128	$0x1, 16(%rsi,%rcx), %ymm2, %ymm2
	vmovapd	(%r9,%rcx), %ymm3
	addq	$32, %rcx
	cmpq	%r8, %rax
	vsubpd	%ymm2, %ymm3, %ymm2
	vaddpd	%ymm2, %ymm1, %ymm1
	jb	.L28
	vhaddpd	%ymm1, %ymm1, %ymm1
	addq	%r10, %rdx
	subq	%r10, %rdi
	cmpq	%r10, %r11
	vperm2f128	$1, %ymm1, %ymm1, %ymm2
	vaddpd	%ymm2, %ymm1, %ymm1
	vaddsd	%xmm1, %xmm0, %xmm0
	je	.L29
.L27:
	.loc 1 15 0
	addq	%rdx, %rdi
	.p2align 4,,10
	.p2align 3
.L30:
	.loc 1 10 0
	vmovsd	(%rbx,%rdx,8), %xmm1
	vsubsd	(%r12,%rdx,8), %xmm1, %xmm1
	.loc 1 9 0
	addq	$1, %rdx
	cmpq	%rdi, %rdx
	.loc 1 10 0
	vaddsd	%xmm1, %xmm0, %xmm0
.LVL16:
	.loc 1 9 0
	jne	.L30
.LVL17:
.L29:
.LBE47:
.LBE48:
.LBE49:
	.loc 1 19 0
	movl	$.LC1, %esi
	movl	$_ZSt4cout, %edi
	vmovsd	%xmm0, 32(%rsp)
	vmovsd	%xmm4, (%rsp)
	vzeroupper
	call	_ZStlsISt11char_traitsIcEERSt13basic_ostreamIcT_ES5_PKc
.LVL18:
.LBB50:
.LBB51:
	.file 2 "/usr/include/c++/4.7/ostream"
	.loc 2 219 0
	vmovsd	32(%rsp), %xmm0
	movq	%rax, %rdi
	call	_ZNSo9_M_insertIdEERSoT_
.LVL19:
.LBE51:
.LBE50:
.LBB52:
.LBB53:
	.loc 2 111 0
	movq	%rax, %rdi
	call	_ZSt4endlIcSt11char_traitsIcEERSt13basic_ostreamIT_T0_ES6_
.LVL20:
.LBE53:
.LBE52:
	.loc 1 20 0
	leaq	4(%rbx), %rax
.LVL21:
	vmovsd	(%rsp), %xmm4
.LBB55:
.LBB54:
	.loc 1 15 0
	andl	$31, %eax
.LVL22:
	shrq	$3, %rax
	negq	%rax
	andl	$3, %eax
	je	.L38
.LBE54:
.LBE55:
.LBE68:
	vmovapd	%xmm4, %xmm0
	xorl	%ecx, %ecx
	movl	$127, %esi
.LVL23:
	.p2align 4,,10
	.p2align 3
.L32:
.LBB69:
.LBB56:
.LBB57:
.LBB58:
	.loc 1 10 0
	vmovsd	4(%rbx,%rcx,8), %xmm1
	.loc 1 9 0
	leaq	1(%rcx), %rdx
	movq	%rsi, %rdi
	.loc 1 10 0
	vsubsd	4(%r12,%rcx,8), %xmm1, %xmm1
	subq	%rcx, %rdi
	cmpq	%rdx, %rax
	.loc 1 9 0
	movq	%rdx, %rcx
	.loc 1 10 0
	vaddsd	%xmm1, %xmm0, %xmm0
.LVL24:
	ja	.L32
.LVL25:
.L31:
	movl	$128, %r11d
	subq	%rax, %r11
	movq	%r11, %r8
	shrq	$2, %r8
	leaq	0(,%r8,4), %r10
	testq	%r10, %r10
	je	.L33
	leaq	4(,%rax,8), %rsi
.LBE58:
.LBE57:
.LBE56:
.LBE69:
	.loc 1 15 0
	vxorpd	%xmm1, %xmm1, %xmm1
	xorl	%ecx, %ecx
	xorl	%eax, %eax
	leaq	(%rbx,%rsi), %r9
	addq	%r12, %rsi
	.p2align 4,,10
	.p2align 3
.L34:
.LBB70:
.LBB61:
.LBB60:
.LBB59:
	.loc 1 10 0
	vmovupd	(%rsi,%rcx), %xmm2
	addq	$1, %rax
	vinsertf128	$0x1, 16(%rsi,%rcx), %ymm2, %ymm2
	vmovapd	(%r9,%rcx), %ymm3
	addq	$32, %rcx
	cmpq	%r8, %rax
	vsubpd	%ymm2, %ymm3, %ymm2
	vaddpd	%ymm2, %ymm1, %ymm1
	jb	.L34
	vhaddpd	%ymm1, %ymm1, %ymm1
	addq	%r10, %rdx
	subq	%r10, %rdi
	cmpq	%r10, %r11
	vperm2f128	$1, %ymm1, %ymm1, %ymm2
	vaddpd	%ymm2, %ymm1, %ymm1
	vaddsd	%xmm1, %xmm0, %xmm0
	je	.L35
.L33:
	.loc 1 15 0
	addq	%rdx, %rdi
	.p2align 4,,10
	.p2align 3
.L36:
	.loc 1 10 0
	vmovsd	4(%rbx,%rdx,8), %xmm1
	vsubsd	4(%r12,%rdx,8), %xmm1, %xmm1
	.loc 1 9 0
	addq	$1, %rdx
	cmpq	%rdi, %rdx
	.loc 1 10 0
	vaddsd	%xmm1, %xmm0, %xmm0
.LVL26:
	.loc 1 9 0
	jne	.L36
.LVL27:
.L35:
.LBE59:
.LBE60:
.LBE61:
	.loc 1 20 0
	movl	$.LC2, %esi
	movl	$_ZSt4cout, %edi
	vmovsd	%xmm0, 32(%rsp)
	vzeroupper
	call	_ZStlsISt11char_traitsIcEERSt13basic_ostreamIcT_ES5_PKc
.LVL28:
.LBB62:
.LBB63:
	.loc 2 219 0
	vmovsd	32(%rsp), %xmm0
	movq	%rax, %rdi
	call	_ZNSo9_M_insertIdEERSoT_
.LVL29:
.LBE63:
.LBE62:
.LBB64:
.LBB65:
	.loc 2 111 0
	movq	%rax, %rdi
	call	_ZSt4endlIcSt11char_traitsIcEERSt13basic_ostreamIT_T0_ES6_
.LVL30:
.LBE65:
.LBE64:
.LBE70:
	.loc 1 22 0
	leaq	-16(%rbp), %rsp
	xorl	%eax, %eax
	popq	%rbx
.LVL31:
	popq	%r12
.LVL32:
	popq	%rbp
.LCFI6:
	.cfi_remember_state
	.cfi_def_cfa 7, 8
	ret
.LVL33:
.L37:
.LCFI7:
	.cfi_restore_state
	.loc 1 8 0
	vxorpd	%xmm4, %xmm4, %xmm4
	.loc 1 15 0
	movl	$128, %edi
	.loc 1 9 0
	xorl	%edx, %edx
	.loc 1 8 0
	vmovapd	%xmm4, %xmm0
	jmp	.L25
.LVL34:
.L38:
	.loc 1 15 0
	movl	$128, %edi
	.loc 1 8 0
	vmovapd	%xmm4, %xmm0
	.loc 1 9 0
	xorl	%edx, %edx
	jmp	.L31
	.cfi_endproc
.LFE3056:
	.size	main, .-main
	.p2align 4,,15
	.type	_GLOBAL__sub_I__Z4distPKdS0_m, @function
_GLOBAL__sub_I__Z4distPKdS0_m:
.LFB3256:
	.loc 1 22 0
	.cfi_startproc
.LVL35:
	subq	$8, %rsp
.LCFI8:
	.cfi_def_cfa_offset 16
.LBB73:
.LBB74:
	.file 3 "/usr/include/c++/4.7/iostream"
	.loc 3 75 0
	movl	$_ZStL8__ioinit, %edi
	call	_ZNSt8ios_base4InitC1Ev
.LVL36:
	movl	$__dso_handle, %edx
	movl	$_ZStL8__ioinit, %esi
	movl	$_ZNSt8ios_base4InitD1Ev, %edi
.LBE74:
.LBE73:
	.loc 1 22 0
	addq	$8, %rsp
.LCFI9:
	.cfi_def_cfa_offset 8
.LBB76:
.LBB75:
	.loc 3 75 0
	jmp	__cxa_atexit
.LVL37:
.LBE75:
.LBE76:
	.cfi_endproc
.LFE3256:
	.size	_GLOBAL__sub_I__Z4distPKdS0_m, .-_GLOBAL__sub_I__Z4distPKdS0_m
	.section	.init_array,"aw"
	.align 8
	.quad	_GLOBAL__sub_I__Z4distPKdS0_m
	.local	_ZStL8__ioinit
	.comm	_ZStL8__ioinit,1,1
	.text
.Letext0:
	.file 4 "/usr/include/libio.h"
	.file 5 "/usr/include/stdio.h"
	.file 6 "<built-in>"
	.file 7 "/usr/lib/gcc/x86_64-linux-gnu/4.7/include/stddef.h"
	.file 8 "/usr/include/wchar.h"
	.file 9 "/usr/include/c++/4.7/cwchar"
	.file 10 "/usr/include/c++/4.7/bits/exception_ptr.h"
	.file 11 "/usr/include/x86_64-linux-gnu/c++/4.7/./bits/c++config.h"
	.file 12 "/usr/include/c++/4.7/type_traits"
	.file 13 "/usr/include/c++/4.7/bits/char_traits.h"
	.file 14 "/usr/include/c++/4.7/cstdint"
	.file 15 "/usr/include/c++/4.7/clocale"
	.file 16 "/usr/include/c++/4.7/bits/stl_pair.h"
	.file 17 "/usr/include/c++/4.7/new"
	.file 18 "/usr/include/c++/4.7/cstdlib"
	.file 19 "/usr/include/c++/4.7/cstdio"
	.file 20 "/usr/include/c++/4.7/bits/ios_base.h"
	.file 21 "/usr/include/c++/4.7/cwctype"
	.file 22 "/usr/include/c++/4.7/bits/ostream.tcc"
	.file 23 "/usr/include/c++/4.7/cmath"
	.file 24 "/usr/include/c++/4.7/bits/allocator.h"
	.file 25 "/usr/include/c++/4.7/bits/alloc_traits.h"
	.file 26 "/usr/include/c++/4.7/debug/debug.h"
	.file 27 "/usr/include/c++/4.7/bits/random.h"
	.file 28 "/usr/include/c++/4.7/bits/uses_allocator.h"
	.file 29 "/usr/include/c++/4.7/tuple"
	.file 30 "/usr/include/c++/4.7/bits/basic_ios.h"
	.file 31 "/usr/include/c++/4.7/iosfwd"
	.file 32 "/usr/include/c++/4.7/functional"
	.file 33 "/usr/include/x86_64-linux-gnu/bits/wchar2.h"
	.file 34 "/usr/include/time.h"
	.file 35 "/usr/include/c++/4.7/ext/new_allocator.h"
	.file 36 "/usr/include/c++/4.7/ext/numeric_traits.h"
	.file 37 "/usr/include/stdint.h"
	.file 38 "/usr/include/locale.h"
	.file 39 "/usr/include/x86_64-linux-gnu/bits/types.h"
	.file 40 "/usr/include/x86_64-linux-gnu/c++/4.7/./bits/atomic_word.h"
	.file 41 "/usr/include/stdlib.h"
	.file 42 "/usr/include/x86_64-linux-gnu/bits/stdlib.h"
	.file 43 "/usr/include/_G_config.h"
	.file 44 "/usr/include/x86_64-linux-gnu/bits/stdio2.h"
	.file 45 "/usr/include/x86_64-linux-gnu/bits/stdio.h"
	.file 46 "/usr/include/wctype.h"
	.file 47 "/usr/include/x86_64-linux-gnu/bits/mathdef.h"
	.file 48 "/usr/include/x86_64-linux-gnu/bits/math-finite.h"
	.section	.note.GNU-stack,"",@progbits
